; Function Attrs: mustprogress nounwind uwtable
define void @_ZN32pxrInternal_v0_24__pxrReserved__13Usd_ClipCache8LifeboatD2Ev(ptr nocapture noundef nonnull align 8 dereferenceable(16) %0) unnamed_addr #3 align 2 personality ptr @__gxx_personality_v0 {
  %2 = load ptr, ptr %0, align 8
  %3 = getelementptr inbounds nuw i8, ptr %2, i64 48
  store ptr null, ptr %3, align 8
  %4 = getelementptr inbounds nuw i8, ptr %0, i64 8
  %5 = load ptr, ptr %4, align 8
  %.not.i = icmp eq ptr %5, null
  br i1 %.not.i, label %_ZNSt10unique_ptrIN32pxrInternal_v0_24__pxrReserved__13Usd_ClipCache8Lifeboat4DataESt14default_deleteIS3_EED2Ev.exit, label %_ZNKSt14default_deleteIN32pxrInternal_v0_24__pxrReserved__13Usd_ClipCache8Lifeboat4DataEEclEPS3_.exit.i

_ZNKSt14default_deleteIN32pxrInternal_v0_24__pxrReserved__13Usd_ClipCache8Lifeboat4DataEEclEPS3_.exit.i: ; preds = %1
  tail call void @_ZN32pxrInternal_v0_24__pxrReserved__13Usd_ClipCache8Lifeboat4DataD2Ev(ptr noundef nonnull align 8 dereferenceable(80) %5) #21
  tail call void @_ZdlPvm(ptr noundef nonnull %5, i64 noundef 80) #22
  br label %_ZNSt10unique_ptrIN32pxrInternal_v0_24__pxrReserved__13Usd_ClipCache8Lifeboat4DataESt14default_deleteIS3_EED2Ev.exit

_ZNSt10unique_ptrIN32pxrInternal_v0_24__pxrReserved__13Usd_ClipCache8Lifeboat4DataESt14default_deleteIS3_EED2Ev.exit: ; preds = %1, %_ZNKSt14default_deleteIN32pxrInternal_v0_24__pxrReserved__13Usd_ClipCache8Lifeboat4DataEEclEPS3_.exit.i
  store ptr null, ptr %4, align 8
  ret void
}